Certificate:
    Data:
        Version: 1 (0x0)
        Serial Number: 18262194220121464380 (0xfd7058e2cd881e3c)
    Signature Algorithm: sha1WithRSAEncryption
        Issuer: C=IS, L=Default City, O=Default Company Ltd
        Validity
            Not Before: Oct 29 21:25:40 2015 GMT
            Not After : Oct 28 21:25:40 2016 GMT
        Subject: C=IS, L=Default City, O=Default Company Ltd
        Subject Public Key Info:
            Public Key Algorithm: rsaEncryption
                Public-Key: (2048 bit)
                Modulus:
                    00:c1:83:e9:bb:88:d9:bb:d5:60:af:12:70:b5:10:
                    0b:50:60:74:73:0b:0e:90:6d:8c:17:c1:8b:ab:90:
                    68:39:64:d0:76:b8:be:c5:5a:8d:2a:9b:ce:7a:b3:
                    5c:27:42:f9:6d:90:30:b8:a0:e0:36:c4:ec:93:83:
                    6d:83:10:a0:cd:67:d3:fc:63:df:27:b1:73:5e:5c:
                    69:1b:66:06:73:d6:a3:8c:94:ee:b8:cc:c2:15:01:
                    ca:86:cf:17:a9:3b:d5:27:87:c9:a8:95:42:c7:2a:
                    cd:f0:fa:e5:88:5c:2b:8f:38:4f:22:20:ba:45:f0:
                    f3:12:59:0b:30:98:0e:77:76:d3:70:8f:7d:aa:ca:
                    94:20:a4:d4:8f:68:27:09:09:35:75:78:9f:f3:f3:
                    48:bb:7d:c3:2c:a1:1c:0e:b9:92:05:27:09:b3:01:
                    a5:52:19:e3:88:e8:ee:c0:e9:e0:ab:f0:1c:7b:00:
                    0c:2b:25:de:32:84:8e:58:6d:b7:10:99:5e:26:2d:
                    4d:40:cd:60:19:0a:27:41:18:70:88:cb:34:09:4d:
                    8e:d0:f3:45:45:c5:cc:1d:0d:b9:a9:6f:e2:a8:04:
                    ce:ed:e9:35:57:49:98:45:d1:40:66:d3:dd:cf:8e:
                    0b:00:4a:a9:b3:36:82:f5:a9:cd:e9:7c:4f:29:a6:
                    60:a5
                Exponent: 65537 (0x10001)
    Signature Algorithm: sha1WithRSAEncryption
         82:ee:ad:31:9c:b1:ce:e8:11:cc:da:72:25:4d:13:d2:ce:39:
         fb:96:a5:55:37:fc:4d:78:64:15:a7:10:a9:f7:6c:e3:3a:55:
         93:36:ff:d1:b5:9f:3a:ad:59:82:4d:84:89:65:6d:6f:c8:c6:
         c1:6e:bf:18:d5:ba:92:b5:4b:c8:8d:af:ea:b5:ba:c7:d4:97:
         25:a8:df:c9:1e:cf:39:b8:5d:4f:28:e9:66:c1:26:5d:ab:40:
         c0:54:a7:bf:d2:1b:3d:50:18:15:3c:05:77:39:b9:d3:1d:ee:
         c2:ea:98:2f:f5:8a:44:dd:2b:da:97:1d:98:c6:bd:22:c3:54:
         33:d7:a2:cf:1d:cd:85:9b:2d:73:f2:72:b7:69:7c:72:42:2a:
         65:1f:e2:ed:99:07:65:2e:0d:3d:01:43:5b:54:14:c3:e4:16:
         48:b6:b5:b9:4a:88:df:c6:af:c8:bd:e9:90:cc:ca:b4:ae:71:
         52:90:5c:d5:e9:7e:0a:47:5f:5e:78:cf:1b:07:d2:3a:7b:2f:
         be:d2:89:f9:52:3c:0b:2f:d9:aa:70:e8:30:9e:2b:73:6c:fa:
         4c:cb:99:af:09:a5:9e:3b:de:b7:1c:03:0b:2f:f9:3d:e9:bd:
         35:62:d7:46:13:51:8f:8b:e5:e5:c2:88:23:a8:fe:41:4c:8e:
         6e:57:91:31
-----BEGIN CERTIFICATE-----
MIIDADCCAegCCQD9cFjizYgePDANBgkqhkiG9w0BAQUFADBCMQswCQYDVQQGEwJJ
UzEVMBMGA1UEBwwMRGVmYXVsdCBDaXR5MRwwGgYDVQQKDBNEZWZhdWx0IENvbXBh
bnkgTHRkMB4XDTE1MTAyOTIxMjU0MFoXDTE2MTAyODIxMjU0MFowQjELMAkGA1UE
BhMCSVMxFTATBgNVBAcMDERlZmF1bHQgQ2l0eTEcMBoGA1UECgwTRGVmYXVsdCBD
b21wYW55IEx0ZDCCASIwDQYJKoZIhvcNAQEBBQADggEPADCCAQoCggEBAMGD6buI
2bvVYK8ScLUQC1BgdHMLDpBtjBfBi6uQaDlk0Ha4vsVajSqbznqzXCdC+W2QMLig
4DbE7JODbYMQoM1n0/xj3yexc15caRtmBnPWo4yU7rjMwhUByobPF6k71SeHyaiV
QscqzfD65YhcK484TyIgukXw8xJZCzCYDnd203CPfarKlCCk1I9oJwkJNXV4n/Pz
SLt9wyyhHA65kgUnCbMBpVIZ44jo7sDp4KvwHHsADCsl3jKEjlhttxCZXiYtTUDN
YBkKJ0EYcIjLNAlNjtDzRUXFzB0Nualv4qgEzu3pNVdJmEXRQGbT3c+OCwBKqbM2
gvWpzel8TymmYKUCAwEAATANBgkqhkiG9w0BAQUFAAOCAQEAgu6tMZyxzugRzNpy
JU0T0s45+5alVTf8TXhkFacQqfds4zpVkzb/0bWfOq1Zgk2EiWVtb8jGwW6/GNW6
krVLyI2v6rW6x9SXJajfyR7PObhdTyjpZsEmXatAwFSnv9IbPVAYFTwFdzm50x3u
wuqYL/WKRN0r2pcdmMa9IsNUM9eizx3NhZstc/Jyt2l8ckIqZR/i7ZkHZS4NPQFD
W1QUw+QWSLa1uUqI38avyL3pkMzKtK5xUpBc1el+CkdfXnjPGwfSOnsvvtKJ+VI8
Cy/ZqnDoMJ4rc2z6TMuZrwmlnjvetxwDCy/5Pem9NWLXRhNRj4vl5cKII6j+QUyO
bleRMQ==
-----END CERTIFICATE-----
