Certificate:
    Data:
        Version: 1 (0x0)
        Serial Number: 14520452860154204233 (0xc98302f1934bd049)
    Signature Algorithm: sha1WithRSAEncryption
        Issuer: C=IS
        Validity
            Not Before: Oct 31 12:42:13 2015 GMT
            Not After : Oct 30 12:42:13 2016 GMT
        Subject: C=IS
        Subject Public Key Info:
            Public Key Algorithm: rsaEncryption
                Public-Key: (2048 bit)
                Modulus:
                    00:bf:84:41:7f:74:1d:5a:04:d1:ab:e3:99:87:bf:
                    da:80:6d:c6:d8:da:3a:20:f7:d1:5a:78:35:aa:04:
                    c1:b8:94:ae:ce:ba:34:3c:c4:31:c2:71:d9:ff:dd:
                    3c:b1:86:65:29:e7:57:4d:74:09:60:f2:2a:5d:f5:
                    aa:e1:87:59:28:dd:71:3b:07:d8:8e:7d:9c:2c:7d:
                    2a:af:fd:f3:5e:f0:a3:d5:69:1d:de:9b:13:00:8b:
                    d3:20:90:39:65:83:91:cf:d0:49:37:f6:c0:ca:eb:
                    63:0f:90:e3:60:09:41:dc:a4:29:f6:bd:8f:7d:cc:
                    01:cf:f8:2e:55:42:a9:69:57:d4:ed:51:7d:49:b8:
                    6b:8d:b5:71:00:2c:8f:e6:99:f0:18:68:29:54:a0:
                    e2:0f:8a:73:bc:03:15:be:84:27:85:2c:9e:d5:26:
                    ff:cc:3f:d2:76:63:77:6d:16:b3:41:b2:00:fe:63:
                    50:f3:74:af:2f:59:44:dd:0d:97:b3:32:4b:1a:2a:
                    48:91:39:56:8f:8a:69:78:3b:d4:4c:45:de:44:b7:
                    ee:7c:99:58:9c:06:bb:2d:f6:03:f6:9e:fd:98:ce:
                    d3:9f:69:80:6f:20:df:ac:53:41:0a:95:b1:ac:fd:
                    19:82:06:2c:29:6d:e3:a5:8f:2a:b5:c8:44:83:81:
                    59:45
                Exponent: 65537 (0x10001)
    Signature Algorithm: sha1WithRSAEncryption
         b0:74:60:e9:86:4e:d4:10:a7:1d:05:44:c6:2d:47:a3:30:cb:
         f2:fd:62:89:08:34:08:9a:63:ac:7f:9a:95:38:12:d5:13:75:
         85:64:21:cc:1b:e6:82:fc:7b:cd:b7:25:ef:ce:b3:01:ea:54:
         86:1c:aa:2c:d6:bd:a5:20:ea:98:97:e3:e2:e3:52:8c:ae:40:
         28:c2:ff:b7:e9:fb:c2:f4:a9:b8:5b:cd:dd:f2:5b:b0:05:57:
         86:06:28:5b:60:57:65:c9:bd:60:78:19:5b:fc:59:bf:c4:a7:
         b7:f3:2e:aa:65:a2:78:58:4a:ee:ab:e9:89:50:9a:b0:c3:79:
         ad:ab:78:5f:7d:04:f7:5e:5e:6e:4c:6b:63:33:69:fe:db:c9:
         dd:1e:53:3c:84:b8:06:bb:84:67:24:70:17:e7:22:fc:df:53:
         00:d7:cb:86:ff:08:8a:79:5f:68:33:26:0f:d0:12:38:86:38:
         73:a6:0a:51:62:3d:5a:a1:03:72:b6:7d:64:72:ac:7d:52:b8:
         9d:fe:d0:90:51:67:3d:4e:45:33:62:f5:f8:38:94:51:23:fc:
         88:55:79:fa:a1:dc:ce:50:c1:20:ae:8c:d3:d8:4f:08:28:fd:
         62:57:68:3d:d9:be:9e:0b:22:a1:a9:df:f3:81:54:38:ca:71:
         b9:36:12:21
-----BEGIN CERTIFICATE-----
MIICljCCAX4CCQDJgwLxk0vQSTANBgkqhkiG9w0BAQUFADANMQswCQYDVQQGEwJJ
UzAeFw0xNTEwMzExMjQyMTNaFw0xNjEwMzAxMjQyMTNaMA0xCzAJBgNVBAYTAklT
MIIBIjANBgkqhkiG9w0BAQEFAAOCAQ8AMIIBCgKCAQEAv4RBf3QdWgTRq+OZh7/a
gG3G2No6IPfRWng1qgTBuJSuzro0PMQxwnHZ/908sYZlKedXTXQJYPIqXfWq4YdZ
KN1xOwfYjn2cLH0qr/3zXvCj1Wkd3psTAIvTIJA5ZYORz9BJN/bAyutjD5DjYAlB
3KQp9r2PfcwBz/guVUKpaVfU7VF9SbhrjbVxACyP5pnwGGgpVKDiD4pzvAMVvoQn
hSye1Sb/zD/SdmN3bRazQbIA/mNQ83SvL1lE3Q2XszJLGipIkTlWj4ppeDvUTEXe
RLfufJlYnAa7LfYD9p79mM7Tn2mAbyDfrFNBCpWxrP0ZggYsKW3jpY8qtchEg4FZ
RQIDAQABMA0GCSqGSIb3DQEBBQUAA4IBAQCwdGDphk7UEKcdBUTGLUejMMvy/WKJ
CDQImmOsf5qVOBLVE3WFZCHMG+aC/HvNtyXvzrMB6lSGHKos1r2lIOqYl+Pi41KM
rkAowv+36fvC9Km4W83d8luwBVeGBihbYFdlyb1geBlb/Fm/xKe38y6qZaJ4WEru
q+mJUJqww3mtq3hffQT3Xl5uTGtjM2n+28ndHlM8hLgGu4RnJHAX5yL831MA18uG
/wiKeV9oMyYP0BI4hjhzpgpRYj1aoQNytn1kcqx9Urid/tCQUWc9TkUzYvX4OJRR
I/yIVXn6odzOUMEgrozT2E8IKP1iV2g92b6eCyKhqd/zgVQ4ynG5NhIh
-----END CERTIFICATE-----
